; Function Attrs: mustprogress norecurse uwtable
define internal fastcc noundef zeroext i1 @_ZL19TestValidPrivateKeyPKhmi(ptr noundef %0, i64 noundef range(i64 121, 859) %1, i32 noundef range(i32 6, 409) %2) unnamed_addr #0 personality ptr @__gxx_personality_v0 {
  %4 = alloca ptr, align 8
  %5 = alloca %"class.std::unique_ptr", align 8
  call void @llvm.lifetime.start.p0(i64 8, ptr nonnull %4) #16
  store ptr %0, ptr %4, align 8, !tbaa !22
  call void @llvm.lifetime.start.p0(i64 8, ptr nonnull %5) #16
  %6 = call ptr @d2i_AutoPrivateKey(ptr noundef null, ptr noundef nonnull %4, i64 noundef %1)
  store ptr %6, ptr %5, align 8, !tbaa !6
  %7 = icmp ne ptr %6, null
  %8 = load ptr, ptr %4, align 8
  %9 = getelementptr inbounds nuw i8, ptr %0, i64 %1
  %.not = icmp eq ptr %8, %9
  %or.cond = select i1 %7, i1 %.not, i1 false
  br i1 %or.cond, label %10, label %18

10:                                               ; preds = %3
  %11 = invoke i32 @EVP_PKEY_id(ptr noundef nonnull %6)
          to label %12 unwind label %16

12:                                               ; preds = %10
  %.not7 = icmp eq i32 %11, %2
  br i1 %.not7, label %.thread, label %13

13:                                               ; preds = %12
  %14 = load ptr, ptr @stderr, align 8, !tbaa !13
  %15 = call i64 @fwrite(ptr nonnull @.str.25, i64 29, i64 1, ptr %14) #17
  br label %.thread

16:                                               ; preds = %10
  %17 = landingpad { ptr, i32 }
          cleanup
  call void @_ZNSt10unique_ptrI11evp_pkey_st14OpenSSLDeleterIS0_XadL_Z13EVP_PKEY_freeEEEED2Ev(ptr noundef nonnull align 8 dereferenceable(8) %5) #16
  call void @llvm.lifetime.end.p0(i64 8, ptr nonnull %5) #16
  call void @llvm.lifetime.end.p0(i64 8, ptr nonnull %4) #16
  resume { ptr, i32 } %17

18:                                               ; preds = %3
  %19 = load ptr, ptr @stderr, align 8, !tbaa !13
  %20 = call i64 @fwrite(ptr nonnull @.str.24, i64 26, i64 1, ptr %19) #17
  %.not.i = icmp eq ptr %6, null
  br i1 %.not.i, label %_ZNSt10unique_ptrI11evp_pkey_st14OpenSSLDeleterIS0_XadL_Z13EVP_PKEY_freeEEEED2Ev.exit, label %.thread

.thread:                                          ; preds = %13, %12, %18
  %.011 = phi i1 [ false, %18 ], [ true, %12 ], [ false, %13 ]
  invoke void @EVP_PKEY_free(ptr noundef nonnull %6)
          to label %_ZNSt10unique_ptrI11evp_pkey_st14OpenSSLDeleterIS0_XadL_Z13EVP_PKEY_freeEEEED2Ev.exit unwind label %21

21:                                               ; preds = %.thread
  %22 = landingpad { ptr, i32 }
          catch ptr null
  %23 = extractvalue { ptr, i32 } %22, 0
  call void @__clang_call_terminate(ptr %23) #21
  unreachable

_ZNSt10unique_ptrI11evp_pkey_st14OpenSSLDeleterIS0_XadL_Z13EVP_PKEY_freeEEEED2Ev.exit: ; preds = %18, %.thread
  %.012 = phi i1 [ false, %18 ], [ %.011, %.thread ]
  call void @llvm.lifetime.end.p0(i64 8, ptr nonnull %5) #16
  call void @llvm.lifetime.end.p0(i64 8, ptr nonnull %4) #16
  ret i1 %.012
}